Microchip MPLAB XC8 Compiler V2.50

Linker command line:

-W-3 \
  --edf=C:\Program Files\Microchip\xc8\v2.50\pic\dat\20240725155939_en.msgs \
  -cn -h+dist/default/production\Lab_1.X.production.sym \
  --cmf=dist/default/production\Lab_1.X.production.cmf -z -Q16F18875 \
  -oC:\Users\krisg\AppData\Local\Temp\xcAsrso.\driver_tmp_3.o \
  --defsym=__MPLAB_BUILD=1 --fixupoverflow=error \
  -Mdist/default/production/Lab_1.X.production.map \
  --md=C:\Users\krisg\AppData\Local\Temp\xcAsrso.\driver_tmp_0.dat -E1 \
  -ver=XC8 Compiler --acfsm=1493 -ACODE=00h-07FFhx4 -ASTRCODE=00h-01FFFh \
  -ASTRING=00h-0FFhx32 -ACONST=00h-0FFhx32 -AENTRY=00h-0FFhx32 \
  -ACOMMON=070h-07Fh -ABANK0=020h-06Fh -ABANK1=0A0h-0EFh \
  -ABANK2=0120h-016Fh -ABANK3=01A0h-01EFh -ABANK4=0220h-026Fh \
  -ABANK5=02A0h-02EFh -ABANK6=0320h-036Fh -ABANK7=03A0h-03EFh \
  -ABANK8=0420h-046Fh -ABANK9=04A0h-04EFh -ABANK10=0520h-056Fh \
  -ABANK11=05A0h-05EFh -ABANK12=0620h-064Fh -ABIGRAM=02000h-023EFh \
  -ARAM=020h-06Fh,0A0h-0EFh,0120h-016Fh,01A0h-01EFh,0220h-026Fh,02A0h-02EFh,0320h-036Fh,03A0h-03EFh,0420h-046Fh,04A0h-04EFh,0520h-056Fh,05A0h-05EFh,0620h-064Fh \
  -AABS1=020h-07Fh,0A0h-0EFh,0120h-016Fh,01A0h-01EFh,0220h-026Fh,02A0h-02EFh,0320h-036Fh,03A0h-03EFh,0420h-046Fh,04A0h-04EFh,0520h-056Fh,05A0h-05EFh,0620h-064Fh \
  -ASFR0=00h-01Fh -ASFR1=080h-09Fh -ASFR2=0100h-011Fh -ASFR3=0180h-019Fh \
  -ASFR4=0200h-021Fh -ASFR5=0280h-029Fh -ASFR6=0300h-031Fh \
  -ASFR7=0380h-039Fh -ASFR8=0400h-041Fh -ASFR9=0480h-049Fh \
  -ASFR10=0500h-051Fh -ASFR11=0580h-059Fh -ASFR12=0600h-061Fh \
  -ASFR13=0680h-06EFh -ASFR14=0700h-076Fh -ASFR15=0780h-07EFh \
  -ASFR16=0800h-086Fh -ASFR17=0880h-08EFh -ASFR18=0900h-096Fh \
  -ASFR19=0980h-09EFh -ASFR20=0A00h-0A6Fh -ASFR21=0A80h-0AEFh \
  -ASFR22=0B00h-0B6Fh -ASFR23=0B80h-0BEFh -ASFR24=0C00h-0C6Fh \
  -ASFR25=0C80h-0CEFh -ASFR26=0D00h-0D6Fh -ASFR27=0D80h-0DEFh \
  -ASFR28=0E00h-0E6Fh -ASFR29=0E80h-0EEFh -ASFR30=0F00h-0F6Fh \
  -ASFR31=0F80h-0FEFh -ACONFIG=08007h-0800Bh -DCONFIG=2 \
  -AIDLOC=08000h-08003h -DIDLOC=2 -AEEDATA=00h-0FFh/0F000h \
  -peeprom_data=EEDATA -DEEDATA=2 -DCODE=2 -DSTRCODE=2 -DSTRING=2 -DCONST=2 \
  -DENTRY=2 -preset_vec=00h,intentry,sivt,init,end_init -ppowerup=CODE \
  -pcinit=CODE -pfunctab=ENTRY -k \
  C:\Users\krisg\AppData\Local\Temp\xcAsrso.\driver_tmp_20.o \
  dist/default/production\Lab_1.X.production.o 

Object code version is 3.11

Machine type is 16F18875



                Name                               Link     Load   Length Selector   Space Scale
C:\Users\krisg\AppData\Local\Temp\xcAsrso.\driver_tmp_20.o
                end_init                              2        2        2        0       0
                reset_vec                             0        0        2        0       0
                config                             8007     8007        5        0       4
dist/default/production\Lab_1.X.production.o
                cinit                               7EB      7EB       15      FD6       0
                config                             8007     8007        5        0       4
                text65                              C90      C90       2C     1920       0
                text64                              A87      A87        9     150E       0
                text63                              A48      A48        4     1490       0
                text62                              AAD      AAD        F     155A       0
                text61                              A5E      A5E        6     14BC       0
                text60                              AA2      AA2        B     1544       0
                text59                              A39      A39        3     1472       0
                text58                              A4C      A4C        4     1498       0
                text57                              FAD      FAD       53     1F5A       0
                text56                              BDB      BDB       21     17B6       0
                text55                              ACD      ACD       13     159A       0
                text54                              E7B      E7B       4B     1CF6       0
                text53                              A54      A54        5     14A8       0
                text52                              A50      A50        4     14A0       0
                text51                               EE       EE       62      1DC       0
                text50                              A90      A90        9     1520       0
                text49                              150      150       69      2A0       0
                text48                              317      317       82      62E       0
                text47                              EC6      EC6       4B     1D8C       0
                text46                              A3C      A3C        3     1478       0
                text45                              A3F      A3F        3     147E       0
                text44                              A99      A99        9     1532       0
                text43                              B6A      B6A       1A     16D4       0
                text42                              CBC      CBC       2C     1978       0
                text41                              1B9      1B9       6E      372       0
                text40                              DA6      DA6       46     1B4C       0
                text39                              227      227       73      44E       0
                text38                              B20      B20       18     1640       0
                text37                              D22      D22       41     1A44       0
                text36                              DEC      DEC       46     1BD8       0
                text35                              A6A      A6A        7     14D4       0
                text34                              E32      E32       49     1C64       0
                text33                              A42      A42        3     1484       0
                text32                              B84      B84       1A     1708       0
                text31                              F11      F11       4B     1E22       0
                text30                              51A      51A      144      A34       0
                text29                              ABC      ABC       11     1578       0
                text28                              399      399       B1      732       0
                text27                              A71      A71        7     14E2       0
                text26                              AE0      AE0       14     15C0       0
                text25                              A7F      A7F        8     14FE       0
                text24                              B38      B38       19     1670       0
                text23                              B51      B51       19     16A2       0
                text22                              D63      D63       43     1AC6       0
                text21                              29A      29A       7D      534       0
                text20                               93       93       5B      126       0
                text19                              F5C      F5C       51     1EB8       0
                text18                              65E      65E      18D      CBC       0
                text17                              A59      A59        5     14B2       0
                text16                              A64      A64        6     14C8       0
                text15                              A45      A45        3     148A       0
                text14                              A78      A78        7     14F0       0
                text13                              BFC      BFC       23     17F8       0
                text12                              CE8      CE8       3A     19D0       0
                text11                                A        A       32       14       0
                text10                              A36      A36        1     146C       0
                text9                                3C       3C       57       78       0
                text8                               44A      44A       D0      894       0
                text7                               BBC      BBC       1F     1778       0
                text6                               B9E      B9E       1E     173C       0
                text5                               AF4      AF4       16     15E8       0
                text4                               A37      A37        2     146E       0
                text3                               B0A      B0A       16     1614       0
                text2                               C1F      C1F       23     183E       0
                text1                               C42      C42       26     1884       0
                maintext                            C68      C68       28     18D0       0
                cstackBANK0                          20       20       50       20       1
                cstackCOMMON                         70       70        C       70       1
                cstackBANK1                          A0       A0       37       A0       1
                clrtext                               4        4        6        0       0
                bssBANK2                            120      120       48      120       1
                bssBANK1                             D7       D7       18       A0       1
                bssCOMMON                            7C       7C        2       70       1
                stringtext6                        104E     104E        5     2000       0
                stringtext5                        1049     1049        5     2000       0
                stringtext4                        1043     1043        6     2000       0
                stringtext3                        1000     1000       1D     2000       0
                nvBANK2                             168      168        6      120       1
                stringtext2                        1031     1031       12     2000       0
                stringtext1                        101D     101D       14     2000       0

TOTAL           Name                               Link     Load   Length     Space
        CLASS   CODE           
                end_init                              2        2        2         0
                cinit                               7EB      7EB       15         0
                reset_vec                             0        0        2         0
                text65                              C90      C90       2C         0
                text64                              A87      A87        9         0
                text63                              A48      A48        4         0
                text62                              AAD      AAD        F         0
                text61                              A5E      A5E        6         0
                text60                              AA2      AA2        B         0
                text59                              A39      A39        3         0
                text58                              A4C      A4C        4         0
                text57                              FAD      FAD       53         0
                text56                              BDB      BDB       21         0
                text55                              ACD      ACD       13         0
                text54                              E7B      E7B       4B         0
                text53                              A54      A54        5         0
                text52                              A50      A50        4         0
                text51                               EE       EE       62         0
                text50                              A90      A90        9         0
                text49                              150      150       69         0
                text48                              317      317       82         0
                text47                              EC6      EC6       4B         0
                text46                              A3C      A3C        3         0
                text45                              A3F      A3F        3         0
                text44                              A99      A99        9         0
                text43                              B6A      B6A       1A         0
                text42                              CBC      CBC       2C         0
                text41                              1B9      1B9       6E         0
                text40                              DA6      DA6       46         0
                text39                              227      227       73         0
                text38                              B20      B20       18         0
                text37                              D22      D22       41         0
                text36                              DEC      DEC       46         0
                text35                              A6A      A6A        7         0
                text34                              E32      E32       49         0
                text33                              A42      A42        3         0
                text32                              B84      B84       1A         0
                text31                              F11      F11       4B         0
                text30                              51A      51A      144         0
                text29                              ABC      ABC       11         0
                text28                              399      399       B1         0
                text27                              A71      A71        7         0
                text26                              AE0      AE0       14         0
                text25                              A7F      A7F        8         0
                text24                              B38      B38       19         0
                text23                              B51      B51       19         0
                text22                              D63      D63       43         0
                text21                              29A      29A       7D         0
                text20                               93       93       5B         0
                text19                              F5C      F5C       51         0
                text18                              65E      65E      18D         0
                text17                              A59      A59        5         0
                text16                              A64      A64        6         0
                text15                              A45      A45        3         0
                text14                              A78      A78        7         0
                text13                              BFC      BFC       23         0
                text12                              CE8      CE8       3A         0
                text11                                A        A       32         0
                text10                              A36      A36        1         0
                text9                                3C       3C       57         0
                text8                               44A      44A       D0         0
                text7                               BBC      BBC       1F         0
                text6                               B9E      B9E       1E         0
                text5                               AF4      AF4       16         0
                text4                               A37      A37        2         0
                text3                               B0A      B0A       16         0
                text2                               C1F      C1F       23         0
                text1                               C42      C42       26         0
                maintext                            C68      C68       28         0
                clrtext                               4        4        6         0

        CLASS   STRCODE        
                stringtext6                        104E     104E        5         0
                stringtext5                        1049     1049        5         0
                stringtext4                        1043     1043        6         0
                stringtext3                        1000     1000       1D         0
                stringtext2                        1031     1031       12         0
                stringtext1                        101D     101D       14         0

        CLASS   STRING         

        CLASS   CONST          

        CLASS   ENTRY          

        CLASS   COMMON         
                cstackCOMMON                         70       70        C         1
                bssCOMMON                            7C       7C        2         1

        CLASS   BANK0          
                cstackBANK0                          20       20       50         1

        CLASS   BANK1          
                cstackBANK1                          A0       A0       37         1
                bssBANK1                             D7       D7       18         1

        CLASS   BANK2          
                bssBANK2                            120      120       48         1
                nvBANK2                             168      168        6         1

        CLASS   BANK3          

        CLASS   BANK4          

        CLASS   BANK5          

        CLASS   BANK6          

        CLASS   BANK7          

        CLASS   BANK8          

        CLASS   BANK9          

        CLASS   BANK10         

        CLASS   BANK11         

        CLASS   BANK12         

        CLASS   BIGRAM         

        CLASS   RAM            

        CLASS   ABS1           
                abs_s1                               7E       7E        2         1

        CLASS   SFR0           

        CLASS   SFR1           

        CLASS   SFR2           

        CLASS   SFR3           

        CLASS   SFR4           

        CLASS   SFR5           

        CLASS   SFR6           

        CLASS   SFR7           

        CLASS   SFR8           

        CLASS   SFR9           

        CLASS   SFR10          

        CLASS   SFR11          

        CLASS   SFR12          

        CLASS   SFR13          

        CLASS   SFR14          

        CLASS   SFR15          

        CLASS   SFR16          

        CLASS   SFR17          

        CLASS   SFR18          

        CLASS   SFR19          

        CLASS   SFR20          

        CLASS   SFR21          

        CLASS   SFR22          

        CLASS   SFR23          

        CLASS   SFR24          

        CLASS   SFR25          

        CLASS   SFR26          

        CLASS   SFR27          

        CLASS   SFR28          

        CLASS   SFR29          

        CLASS   SFR30          

        CLASS   SFR31          

        CLASS   CONFIG         
                config                             8007     8007        5         4

        CLASS   IDLOC          

        CLASS   EEDATA         

        CLASS   BANK31         

        CLASS   BANK30         

        CLASS   BANK29         

        CLASS   BANK28         

        CLASS   BANK27         

        CLASS   BANK26         

        CLASS   BANK25         

        CLASS   BANK24         

        CLASS   BANK23         

        CLASS   BANK22         

        CLASS   BANK21         

        CLASS   BANK20         

        CLASS   BANK19         

        CLASS   BANK18         

        CLASS   BANK17         

        CLASS   BANK16         

        CLASS   BANK15         

        CLASS   BANK14         

        CLASS   BANK13         

        CLASS   HEAP           

        CLASS   STACK          



SEGMENTS        Name                           Load    Length   Top    Selector   Space  Class     Delta

                reset_vec                      000000  00000A  00000A         0       0  CODE        2
                text11                         00000A  000032  00003C        14       0  CODE        2
                cstackBANK0                    000020  000050  000070        20       1  BANK0       1
                cstackCOMMON                   000070  00000E  00007E        70       1  COMMON      1
                text9                          00003C  000057  000093        78       0  CODE        2
                cstackBANK1                    0000A0  00004F  0000EF        A0       1  BANK1       1
                bssBANK2                       000120  00004E  00016E       120       1  BANK2       1
                text20                         000093  00005B  0000EE       126       0  CODE        2
                text51                         0000EE  000062  000150       1DC       0  CODE        2
                text49                         000150  000069  0001B9       2A0       0  CODE        2
                text41                         0001B9  00006E  000227       372       0  CODE        2
                text39                         000227  000073  00029A       44E       0  CODE        2
                text21                         00029A  00007D  000317       534       0  CODE        2
                text48                         000317  000082  000399       62E       0  CODE        2
                text28                         000399  0000B1  00044A       732       0  CODE        2
                text8                          00044A  0000D0  00051A       894       0  CODE        2
                text30                         00051A  000144  00065E       A34       0  CODE        2
                text18                         00065E  00018D  0007EB       CBC       0  CODE        2
                cinit                          0007EB  000015  000800       FD6       0  CODE        2
                text10                         000A36  000001  000A37      146C       0  CODE        2
                text4                          000A37  000002  000A39      146E       0  CODE        2
                text59                         000A39  000003  000A3C      1472       0  CODE        2
                text46                         000A3C  000003  000A3F      1478       0  CODE        2
                text45                         000A3F  000003  000A42      147E       0  CODE        2
                text33                         000A42  000003  000A45      1484       0  CODE        2
                text15                         000A45  000003  000A48      148A       0  CODE        2
                text63                         000A48  000004  000A4C      1490       0  CODE        2
                text58                         000A4C  000004  000A50      1498       0  CODE        2
                text52                         000A50  000004  000A54      14A0       0  CODE        2
                text53                         000A54  000005  000A59      14A8       0  CODE        2
                text17                         000A59  000005  000A5E      14B2       0  CODE        2
                text61                         000A5E  000006  000A64      14BC       0  CODE        2
                text16                         000A64  000006  000A6A      14C8       0  CODE        2
                text35                         000A6A  000007  000A71      14D4       0  CODE        2
                text27                         000A71  000007  000A78      14E2       0  CODE        2
                text14                         000A78  000007  000A7F      14F0       0  CODE        2
                text25                         000A7F  000008  000A87      14FE       0  CODE        2
                text64                         000A87  000009  000A90      150E       0  CODE        2
                text50                         000A90  000009  000A99      1520       0  CODE        2
                text44                         000A99  000009  000AA2      1532       0  CODE        2
                text60                         000AA2  00000B  000AAD      1544       0  CODE        2
                text62                         000AAD  00000F  000ABC      155A       0  CODE        2
                text29                         000ABC  000011  000ACD      1578       0  CODE        2
                text55                         000ACD  000013  000AE0      159A       0  CODE        2
                text26                         000AE0  000014  000AF4      15C0       0  CODE        2
                text5                          000AF4  000016  000B0A      15E8       0  CODE        2
                text3                          000B0A  000016  000B20      1614       0  CODE        2
                text38                         000B20  000018  000B38      1640       0  CODE        2
                text24                         000B38  000019  000B51      1670       0  CODE        2
                text23                         000B51  000019  000B6A      16A2       0  CODE        2
                text43                         000B6A  00001A  000B84      16D4       0  CODE        2
                text32                         000B84  00001A  000B9E      1708       0  CODE        2
                text6                          000B9E  00001E  000BBC      173C       0  CODE        2
                text7                          000BBC  00001F  000BDB      1778       0  CODE        2
                text56                         000BDB  000021  000BFC      17B6       0  CODE        2
                text13                         000BFC  000023  000C1F      17F8       0  CODE        2
                text2                          000C1F  000023  000C42      183E       0  CODE        2
                text1                          000C42  000026  000C68      1884       0  CODE        2
                maintext                       000C68  000028  000C90      18D0       0  CODE        2
                text65                         000C90  00002C  000CBC      1920       0  CODE        2
                text42                         000CBC  00002C  000CE8      1978       0  CODE        2
                text12                         000CE8  00003A  000D22      19D0       0  CODE        2
                text37                         000D22  000041  000D63      1A44       0  CODE        2
                text22                         000D63  000043  000DA6      1AC6       0  CODE        2
                text40                         000DA6  000046  000DEC      1B4C       0  CODE        2
                text36                         000DEC  000046  000E32      1BD8       0  CODE        2
                text34                         000E32  000049  000E7B      1C64       0  CODE        2
                text54                         000E7B  00004B  000EC6      1CF6       0  CODE        2
                text47                         000EC6  00004B  000F11      1D8C       0  CODE        2
                text31                         000F11  00004B  000F5C      1E22       0  CODE        2
                text19                         000F5C  000051  000FAD      1EB8       0  CODE        2
                text57                         000FAD  000053  001000      1F5A       0  CODE        2
                stringtext3                    001000  000053  001053      2000       0  STRCODE     2


UNUSED ADDRESS RANGES

        Name                Unused          Largest block    Delta
        BANK1            000EF-000EF               1           1
        BANK10           00520-0056F              50           1
        BANK11           005A0-005EF              50           1
        BANK12           00620-0064F              30           1
        BANK2            0016E-0016F               2           1
        BANK3            001A0-001EF              50           1
        BANK4            00220-0026F              50           1
        BANK5            002A0-002EF              50           1
        BANK6            00320-0036F              50           1
        BANK7            003A0-003EF              50           1
        BANK8            00420-0046F              50           1
        BANK9            004A0-004EF              50           1
        BIGRAM           02000-023EF             3F0           1
        CODE             00800-00A35             236           2
                         01053-01FFF             7AD
        CONST            00800-00A35             100           2
                         01053-01FFF             100
        EEDATA           0F000-0F0FF             100           2
        ENTRY            00800-00A35             100           2
                         01053-01FFF             100
        IDLOC            08000-08003               4           2
        RAM              000EF-000EF               1           1
                         0016E-0016F               2
                         001A0-001EF              50
                         00220-0026F              50
                         002A0-002EF              50
                         00320-0036F              50
                         003A0-003EF              50
                         00420-0046F              50
                         004A0-004EF              50
                         00520-0056F              50
                         005A0-005EF              50
                         00620-0064F              30
        SFR0             00000-0001F              20           1
        SFR1             00080-0009F              20           1
        SFR10            00500-0051F              20           1
        SFR11            00580-0059F              20           1
        SFR12            00600-0061F              20           1
        SFR13            00680-006EF              70           1
        SFR14            00700-0076F              70           1
        SFR15            00780-007EF              70           1
        SFR16            00800-0086F              70           1
        SFR17            00880-008EF              70           1
        SFR18            00900-0096F              70           1
        SFR19            00980-009EF              70           1
        SFR2             00100-0011F              20           1
        SFR20            00A00-00A6F              70           1
        SFR21            00A80-00AEF              70           1
        SFR22            00B00-00B6F              70           1
        SFR23            00B80-00BEF              70           1
        SFR24            00C00-00C6F              70           1
        SFR25            00C80-00CEF              70           1
        SFR26            00D00-00D6F              70           1
        SFR27            00D80-00DEF              70           1
        SFR28            00E00-00E6F              70           1
        SFR29            00E80-00EEF              70           1
        SFR3             00180-0019F              20           1
        SFR30            00F00-00F6F              70           1
        SFR31            00F80-00FEF              70           1
        SFR4             00200-0021F              20           1
        SFR5             00280-0029F              20           1
        SFR6             00300-0031F              20           1
        SFR7             00380-0039F              20           1
        SFR8             00400-0041F              20           1
        SFR9             00480-0049F              20           1
        STRCODE          00800-00A35             236           2
                         01053-01FFF             FAD
        STRING           00800-00A35             100           2
                         01053-01FFF             100

                                  Symbol Table

?_ADC_ConversionResultGet                  cstackCOMMON 00070
?_LCDbusy                                  cstackCOMMON 00077
?_ReadConfigs                              cstackCOMMON 00072
?_ReadMaxMin                               cstackBANK0  00020
?___awdiv                                  cstackCOMMON 00070
?___awmod                                  cstackCOMMON 00070
?___lwdiv                                  cstackCOMMON 00070
?___lwmod                                  cstackCOMMON 00070
?_sprintf                                  cstackBANK0  00034
?_vfprintf                                 cstackBANK0  0002F
ADC_ChannelSelect@channel                  cstackCOMMON 00070
CalculateChecksum@checksum                 cstackBANK0  0006B
CalculateChecksum@configs                  cstackBANK0  00049
CalculateChecksum@i                        cstackBANK0  0006C
CalculateChecksum@sensorsMaxMin            cstackBANK0  00053
EEPROM_Read@address                        cstackCOMMON 00070
EEPROM_Write@address                       cstackCOMMON 00070
EEPROM_Write@data                          cstackCOMMON 00072
EEPROM_Write@globalInterruptBitValue       cstackCOMMON 00073
INT_SetInterruptHandler@InterruptHandler   cstackCOMMON 00070
LCDWriteStr@c                              cstackBANK0  00024
LCDWriteStr@l                              cstackBANK0  00023
LCDWriteStr@s                              cstackBANK0  00021
LCDchar@c                                  cstackCOMMON 00077
LCDcmd@c                                   cstackCOMMON 00077
LCDpos@c                                   cstackCOMMON 00078
LCDpos@l                                   cstackCOMMON 00079
LCDpos@p                                   cstackCOMMON 0007A
LCDrecv@hc                                 cstackCOMMON 00074
LCDrecv@lc                                 cstackCOMMON 00075
LCDrecv@mode                               cstackCOMMON 00076
LCDsend2x4@c                               cstackCOMMON 00074
LCDsend2x4@hc                              cstackCOMMON 00075
LCDsend2x4@lc                              cstackCOMMON 00076
LCDsend2x4@mode                            cstackCOMMON 00072
LCDsend@c                                  cstackCOMMON 00073
LCDstr@c                                   cstackBANK0  00020
LCDstr@p                                   cstackCOMMON 00078
MemIsUsable@calculatedChecksum             cstackBANK1  000A0
MemIsUsable@readChecksum                   cstackBANK1  000A2
MemIsUsable@readMagicWord                  cstackBANK1  000A1
ReadConfigs@configs                        cstackBANK0  00021
ReadMaxMin@i                               cstackBANK0  00048
ReadMaxMin@sensorMaxMin                    cstackBANK0  00034
WriteChecksum@calculatedChecksum           cstackBANK0  0006F
WriteChecksum@configs                      cstackBANK1  000A0
WriteChecksum@sensorsMaxMin                cstackBANK1  000AA
WriteConfigs@configs                       cstackBANK0  00020
WriteI2C@data_out                          cstackCOMMON 00071
WriteMaxMin@i                              cstackCOMMON 00078
WriteMaxMin@sensorMaxMin                   cstackBANK0  00020
_ADACCH                                    (abs)        00091
_ADACCL                                    (abs)        00090
_ADACQ                                     (abs)        0009D
_ADACT                                     (abs)        00099
_ADCAP                                     (abs)        0009B
_ADCLK                                     (abs)        00098
_ADCNT                                     (abs)        0010C
_ADCON0                                    (abs)        00093
_ADCON0bits                                (abs)        00093
_ADCON1                                    (abs)        00094
_ADCON1bits                                (abs)        00094
_ADCON2                                    (abs)        00095
_ADCON2bits                                (abs)        00095
_ADCON3                                    (abs)        00096
_ADCON3bits                                (abs)        00096
_ADC_ChannelSelect                         text17       00A59
_ADC_ConversionDoneCallback                bssBANK2     00152
_ADC_ConversionResultGet                   text16       00A64
_ADC_ConversionStart                       text15       00A45
_ADC_Initialize                            text65       00C90
_ADC_IsConversionDone                      text14       00A78
_ADC_ThresholdCallback                     bssBANK2     00150
_ADERRH                                    (abs)        00117
_ADERRL                                    (abs)        00116
_ADFLTRH                                   (abs)        00115
_ADFLTRL                                   (abs)        00114
_ADLTHH                                    (abs)        0010F
_ADLTHL                                    (abs)        0010E
_ADPCH                                     (abs)        0009E
_ADPRE                                     (abs)        0009C
_ADPREVH                                   (abs)        0008F
_ADPREVL                                   (abs)        0008E
_ADREF                                     (abs)        0009A
_ADRESH                                    (abs)        0008D
_ADRESL                                    (abs)        0008C
_ADRPT                                     (abs)        0010D
_ADSTAT                                    (abs)        00097
_ADSTATbits                                (abs)        00097
_ADSTPTH                                   (abs)        00113
_ADSTPTL                                   (abs)        00112
_ADUTHH                                    (abs)        00111
_ADUTHL                                    (abs)        00110
_ANSELA                                    (abs)        00F38
_ANSELB                                    (abs)        00F43
_ANSELC                                    (abs)        00F4E
_ANSELD                                    (abs)        00F59
_ANSELE                                    (abs)        00F64
_CLOCK_Initialize                          text64       00A87
_CalculateChecksum                         text51       000EE
_EEPROM_Read                               text50       00A90
_EEPROM_Write                              text43       00B6A
_I2C1_Callback                             bssBANK2     0014E
_I2C1_CallbackRegister                     (abs)        00000
_I2C1_Deinitialize                         (abs)        00000
_I2C1_EVENT_ERROR                          (abs)        00000
_I2C1_EVENT_IDLE                           (abs)        00000
_I2C1_EVENT_NACK                           (abs)        00000
_I2C1_EVENT_RESET                          (abs)        00000
_I2C1_EVENT_RX                             (abs)        00000
_I2C1_EVENT_SEND_RD_ADDR                   (abs)        00000
_I2C1_EVENT_SEND_WR_ADDR                   (abs)        00000
_I2C1_EVENT_STOP                           (abs)        00000
_I2C1_EVENT_TX                             (abs)        00000
_I2C1_ErrorGet                             (abs)        00000
_I2C1_Initialize                           text62       00AAD
_I2C1_InterruptsEnable                     text63       00A48
_I2C1_IsBusy                               (abs)        00000
_I2C1_Read                                 (abs)        00000
_I2C1_Write                                (abs)        00000
_I2C1_WriteRead                            (abs)        00000
_INLVLA                                    (abs)        00F3C
_INLVLB                                    (abs)        00F47
_INLVLC                                    (abs)        00F52
_INLVLD                                    (abs)        00F5D
_INLVLE                                    (abs)        00F68
_INTCONbits                                (abs)        0000B
_INTERRUPT_Initialize                      text60       00AA2
_INT_DefaultInterruptHandler               (abs)        00000
_INT_InterruptHandler                      nvBANK2      0016C
_INT_SetInterruptHandler                   text61       00A5E
_IOCAF                                     (abs)        00F3F
_IOCAN                                     (abs)        00F3E
_IOCAP                                     (abs)        00F3D
_IOCBF                                     (abs)        00F4A
_IOCBN                                     (abs)        00F49
_IOCBP                                     (abs)        00F48
_IOCCF                                     (abs)        00F55
_IOCCN                                     (abs)        00F54
_IOCCP                                     (abs)        00F53
_IOCEF                                     (abs)        00F6B
_IOCEN                                     (abs)        00F6A
_IOCEP                                     (abs)        00F69
_LATA                                      (abs)        00016
_LATAbits                                  (abs)        00016
_LATB                                      (abs)        00017
_LATC                                      (abs)        00018
_LATD                                      (abs)        00019
_LATE                                      (abs)        0001A
_LCDWriteStr                               text23       00B51
_LCDbusy                                   text29       00ABC
_LCDchar                                   text25       00A7F
_LCDcmd                                    text27       00A71
_LCDinit                                   text21       0029A
_LCDpos                                    text26       00AE0
_LCDrecv                                   text30       0051A
_LCDsend                                   text22       00D63
_LCDsend2x4                                text28       00399
_LCDstr                                    text24       00B38
_MemIsUsable                               text47       00EC6
_NVMADRH                                   (abs)        0081B
_NVMADRL                                   (abs)        0081A
_NVMCON1bits                               (abs)        0081E
_NVMCON2                                   (abs)        0081F
_NVMDATH                                   (abs)        0081D
_NVMDATL                                   (abs)        0081C
_NVM_Initialize                            text58       00A4C
_NVM_StatusClear                           text59       00A39
_ODCONA                                    (abs)        00F3A
_ODCONB                                    (abs)        00F45
_ODCONC                                    (abs)        00F50
_ODCOND                                    (abs)        00F5B
_ODCONE                                    (abs)        00F66
_OSCCON1                                   (abs)        0088D
_OSCCON3                                   (abs)        0088F
_OSCEN                                     (abs)        00891
_OSCFRQ                                    (abs)        00893
_OSCTUNE                                   (abs)        00892
_PIE1bits                                  (abs)        00717
_PIE3bits                                  (abs)        00719
_PIE4bits                                  (abs)        0071A
_PIE5bits                                  (abs)        0071B
_PIN_MANAGER_Initialize                    text57       00FAD
_PIR0bits                                  (abs)        0070C
_PIR1bits                                  (abs)        0070D
_PIR3bits                                  (abs)        0070F
_PIR4bits                                  (abs)        00710
_PIR5bits                                  (abs)        00711
_RC3PPS                                    (abs)        00F23
_RC4PPS                                    (abs)        00F24
_ReadConfigs                               text49       00150
_ReadI2C                                   text32       00B84
_ReadMaxMin                                text48       00317
_SLRCONA                                   (abs)        00F3B
_SLRCONB                                   (abs)        00F46
_SLRCONC                                   (abs)        00F51
_SLRCOND                                   (abs)        00F5C
_SLRCONE                                   (abs)        00F67
_SSP1ADD                                   (abs)        0018D
_SSP1BUF                                   (abs)        0018C
_SSP1CLKPPS                                (abs)        00EC5
_SSP1CON1                                  (abs)        00190
_SSP1CON1bits                              (abs)        00190
_SSP1CON2                                  (abs)        00191
_SSP1CON2bits                              (abs)        00191
_SSP1CON3                                  (abs)        00192
_SSP1DATPPS                                (abs)        00EC6
_SSP1STAT                                  (abs)        0018F
_SSP1STATbits                              (abs)        0018F
_SYSTEM_Initialize                         text55       00ACD
_T1CLK                                     (abs)        00211
_T1CON                                     (abs)        0020E
_T1CONbits                                 (abs)        0020E
_T1GATE                                    (abs)        00210
_T1GCON                                    (abs)        0020F
_T1GCONbits                                (abs)        0020F
_TMR1H                                     (abs)        0020D
_TMR1L                                     (abs)        0020C
_TMR1_DefaultGateCallback                  (abs)        00000
_TMR1_DefaultOverflowCallback              (abs)        00000
_TMR1_GateCallback                         nvBANK2      00168
_TMR1_Initialize                           text56       00BDB
_TMR1_OverflowCallback                     nvBANK2      0016A
_TRISA                                     (abs)        00011
_TRISB                                     (abs)        00012
_TRISC                                     (abs)        00013
_TRISCbits                                 (abs)        00013
_TRISD                                     (abs)        00014
_TRISE                                     (abs)        00015
_WPUA                                      (abs)        00F39
_WPUB                                      (abs)        00F44
_WPUC                                      (abs)        00F4F
_WPUD                                      (abs)        00F5A
_WPUE                                      (abs)        00F65
_WriteChecksum                             text42       00CBC
_WriteConfigs                              text41       001B9
_WriteI2C                                  text31       00F11
_WriteMaxMin                               text39       00227
__H__absolute__                            __absolute__ 00000
__Habs1                                    abs1         00000
__Hbank0                                   bank0        00000
__Hbank1                                   bank1        00000
__Hbank10                                  bank10       00000
__Hbank11                                  bank11       00000
__Hbank12                                  bank12       00000
__Hbank13                                  bank13       00000
__Hbank14                                  bank14       00000
__Hbank15                                  bank15       00000
__Hbank16                                  bank16       00000
__Hbank17                                  bank17       00000
__Hbank18                                  bank18       00000
__Hbank19                                  bank19       00000
__Hbank2                                   bank2        00000
__Hbank20                                  bank20       00000
__Hbank21                                  bank21       00000
__Hbank22                                  bank22       00000
__Hbank23                                  bank23       00000
__Hbank24                                  bank24       00000
__Hbank25                                  bank25       00000
__Hbank26                                  bank26       00000
__Hbank27                                  bank27       00000
__Hbank28                                  bank28       00000
__Hbank29                                  bank29       00000
__Hbank3                                   bank3        00000
__Hbank30                                  bank30       00000
__Hbank31                                  bank31       00000
__Hbank4                                   bank4        00000
__Hbank5                                   bank5        00000
__Hbank6                                   bank6        00000
__Hbank7                                   bank7        00000
__Hbank8                                   bank8        00000
__Hbank9                                   bank9        00000
__Hbigram                                  bigram       00000
__HbssBANK1                                bssBANK1     00000
__HbssBANK2                                bssBANK2     00000
__HbssCOMMON                               bssCOMMON    00000
__Hcinit                                   cinit        00800
__Hclrtext                                 clrtext      00000
__Hcode                                    code         00000
__Hcommon                                  common       00000
__Hconfig                                  config       0800C
__HcstackBANK0                             cstackBANK0  00000
__HcstackBANK1                             cstackBANK1  00000
__HcstackCOMMON                            cstackCOMMON 00000
__Heeprom_data                             eeprom_data  00000
__Hend_init                                end_init     00004
__Hfunctab                                 functab      00000
__Hheap                                    heap         00000
__Hinit                                    init         00002
__Hintentry                                intentry     00002
__Hmaintext                                maintext     00000
__HnvBANK2                                 nvBANK2      00000
__Hpowerup                                 powerup      00000
__Hram                                     ram          00000
__Hreset_vec                               reset_vec    00002
__Hsfr0                                    sfr0         00000
__Hsfr1                                    sfr1         00000
__Hsfr10                                   sfr10        00000
__Hsfr11                                   sfr11        00000
__Hsfr12                                   sfr12        00000
__Hsfr13                                   sfr13        00000
__Hsfr14                                   sfr14        00000
__Hsfr15                                   sfr15        00000
__Hsfr16                                   sfr16        00000
__Hsfr17                                   sfr17        00000
__Hsfr18                                   sfr18        00000
__Hsfr19                                   sfr19        00000
__Hsfr2                                    sfr2         00000
__Hsfr20                                   sfr20        00000
__Hsfr21                                   sfr21        00000
__Hsfr22                                   sfr22        00000
__Hsfr23                                   sfr23        00000
__Hsfr24                                   sfr24        00000
__Hsfr25                                   sfr25        00000
__Hsfr26                                   sfr26        00000
__Hsfr27                                   sfr27        00000
__Hsfr28                                   sfr28        00000
__Hsfr29                                   sfr29        00000
__Hsfr3                                    sfr3         00000
__Hsfr30                                   sfr30        00000
__Hsfr31                                   sfr31        00000
__Hsfr4                                    sfr4         00000
__Hsfr5                                    sfr5         00000
__Hsfr6                                    sfr6         00000
__Hsfr7                                    sfr7         00000
__Hsfr8                                    sfr8         00000
__Hsfr9                                    sfr9         00000
__Hsivt                                    sivt         00002
__Hspace_0                                 (abs)        01053
__Hspace_1                                 (abs)        0016E
__Hspace_2                                 (abs)        00000
__Hspace_3                                 (abs)        00000
__Hspace_4                                 (abs)        10013
__Hstack                                   stack        00000
__Hstrings                                 strings      00000
__Hstringtext1                             stringtext1  00000
__Hstringtext2                             stringtext2  00000
__Hstringtext3                             stringtext3  00000
__Hstringtext4                             stringtext4  00000
__Hstringtext5                             stringtext5  00000
__Hstringtext6                             stringtext6  00000
__Hstringtext7                             stringtext7  00000
__Htext                                    text         00000
__L__absolute__                            __absolute__ 00000
__Labs1                                    abs1         00000
__Lbank0                                   bank0        00000
__Lbank1                                   bank1        00000
__Lbank10                                  bank10       00000
__Lbank11                                  bank11       00000
__Lbank12                                  bank12       00000
__Lbank13                                  bank13       00000
__Lbank14                                  bank14       00000
__Lbank15                                  bank15       00000
__Lbank16                                  bank16       00000
__Lbank17                                  bank17       00000
__Lbank18                                  bank18       00000
__Lbank19                                  bank19       00000
__Lbank2                                   bank2        00000
__Lbank20                                  bank20       00000
__Lbank21                                  bank21       00000
__Lbank22                                  bank22       00000
__Lbank23                                  bank23       00000
__Lbank24                                  bank24       00000
__Lbank25                                  bank25       00000
__Lbank26                                  bank26       00000
__Lbank27                                  bank27       00000
__Lbank28                                  bank28       00000
__Lbank29                                  bank29       00000
__Lbank3                                   bank3        00000
__Lbank30                                  bank30       00000
__Lbank31                                  bank31       00000
__Lbank4                                   bank4        00000
__Lbank5                                   bank5        00000
__Lbank6                                   bank6        00000
__Lbank7                                   bank7        00000
__Lbank8                                   bank8        00000
__Lbank9                                   bank9        00000
__Lbigram                                  bigram       00000
__LbssBANK1                                bssBANK1     00000
__LbssBANK2                                bssBANK2     00000
__LbssCOMMON                               bssCOMMON    00000
__Lcinit                                   cinit        007EB
__Lclrtext                                 clrtext      00000
__Lcode                                    code         00000
__Lcommon                                  common       00000
__Lconfig                                  config       00000
__LcstackBANK0                             cstackBANK0  00000
__LcstackBANK1                             cstackBANK1  00000
__LcstackCOMMON                            cstackCOMMON 00000
__Leeprom_data                             eeprom_data  00000
__Lend_init                                end_init     00002
__Lfunctab                                 functab      00000
__Lheap                                    heap         00000
__Linit                                    init         00002
__Lintentry                                intentry     00002
__Lmaintext                                maintext     00000
__LnvBANK2                                 nvBANK2      00000
__Lpowerup                                 powerup      00000
__Lram                                     ram          00000
__Lreset_vec                               reset_vec    00000
__Lsfr0                                    sfr0         00000
__Lsfr1                                    sfr1         00000
__Lsfr10                                   sfr10        00000
__Lsfr11                                   sfr11        00000
__Lsfr12                                   sfr12        00000
__Lsfr13                                   sfr13        00000
__Lsfr14                                   sfr14        00000
__Lsfr15                                   sfr15        00000
__Lsfr16                                   sfr16        00000
__Lsfr17                                   sfr17        00000
__Lsfr18                                   sfr18        00000
__Lsfr19                                   sfr19        00000
__Lsfr2                                    sfr2         00000
__Lsfr20                                   sfr20        00000
__Lsfr21                                   sfr21        00000
__Lsfr22                                   sfr22        00000
__Lsfr23                                   sfr23        00000
__Lsfr24                                   sfr24        00000
__Lsfr25                                   sfr25        00000
__Lsfr26                                   sfr26        00000
__Lsfr27                                   sfr27        00000
__Lsfr28                                   sfr28        00000
__Lsfr29                                   sfr29        00000
__Lsfr3                                    sfr3         00000
__Lsfr30                                   sfr30        00000
__Lsfr31                                   sfr31        00000
__Lsfr4                                    sfr4         00000
__Lsfr5                                    sfr5         00000
__Lsfr6                                    sfr6         00000
__Lsfr7                                    sfr7         00000
__Lsfr8                                    sfr8         00000
__Lsfr9                                    sfr9         00000
__Lsivt                                    sivt         00002
__Lspace_0                                 (abs)        00000
__Lspace_1                                 (abs)        00000
__Lspace_2                                 (abs)        00000
__Lspace_3                                 (abs)        00000
__Lspace_4                                 (abs)        00000
__Lstack                                   stack        00000
__Lstrings                                 strings      00000
__Lstringtext1                             stringtext1  00000
__Lstringtext2                             stringtext2  00000
__Lstringtext3                             stringtext3  00000
__Lstringtext4                             stringtext4  00000
__Lstringtext5                             stringtext5  00000
__Lstringtext6                             stringtext6  00000
__Lstringtext7                             stringtext7  00000
__Ltext                                    text         00000
__S0                                       (abs)        01053
__S1                                       (abs)        0016E
__S3                                       (abs)        00000
___awdiv                                   text20       00093
___awdiv@counter                           cstackCOMMON 00074
___awdiv@dividend                          cstackCOMMON 00072
___awdiv@divisor                           cstackCOMMON 00070
___awdiv@quotient                          cstackCOMMON 00076
___awdiv@sign                              cstackCOMMON 00075
___awmod                                   text19       00F5C
___awmod@counter                           cstackCOMMON 00074
___awmod@dividend                          cstackCOMMON 00072
___awmod@divisor                           cstackCOMMON 00070
___awmod@sign                              cstackCOMMON 00075
___heap_hi                                 (abs)        00000
___heap_lo                                 (abs)        00000
___int_sp                                  stack        00000
___int_stack_hi                            stack        00000
___int_stack_lo                            stack        00000
___latbits                                 (abs)        00002
___lwdiv                                   text12       00CE8
___lwdiv@counter                           cstackCOMMON 00074
___lwdiv@dividend                          cstackCOMMON 00072
___lwdiv@divisor                           cstackCOMMON 00070
___lwdiv@quotient                          cstackCOMMON 00075
___lwmod                                   text11       0000A
___lwmod@counter                           cstackCOMMON 00074
___lwmod@dividend                          cstackCOMMON 00072
___lwmod@divisor                           cstackCOMMON 00070
___sp                                      stack        00000
___stack_hi                                stack        00000
___stack_lo                                stack        00000
___stackhi                                 (abs)        00000
___stacklo                                 (abs)        00000
__configs                                  bssBANK2     00140
__end_of_ADC_ChannelSelect                 text17       00A5E
__end_of_ADC_ConversionResultGet           text16       00A6A
__end_of_ADC_ConversionStart               text15       00A48
__end_of_ADC_Initialize                    text65       00CBC
__end_of_ADC_IsConversionDone              text14       00A7F
__end_of_CLOCK_Initialize                  text64       00A90
__end_of_CalculateChecksum                 text51       00150
__end_of_EEPROM_Read                       text50       00A99
__end_of_EEPROM_Write                      text43       00B84
__end_of_I2C1_Host                         stringtext1  01031
__end_of_I2C1_Initialize                   text62       00ABC
__end_of_I2C1_InterruptsEnable             text63       00A4C
__end_of_INTERRUPT_Initialize              text60       00AAD
__end_of_INT_SetInterruptHandler           text61       00A64
__end_of_LCDWriteStr                       text23       00B6A
__end_of_LCDbusy                           text29       00ACD
__end_of_LCDchar                           text25       00A87
__end_of_LCDcmd                            text27       00A78
__end_of_LCDinit                           text21       00317
__end_of_LCDpos                            text26       00AF4
__end_of_LCDrecv                           text30       0065E
__end_of_LCDsend                           text22       00DA6
__end_of_LCDsend2x4                        text28       0044A
__end_of_LCDstr                            text24       00B51
__end_of_MemIsUsable                       text47       00F11
__end_of_NVM_Initialize                    text58       00A50
__end_of_NVM_StatusClear                   text59       00A3C
__end_of_PIN_MANAGER_Initialize            text57       01000
__end_of_ReadConfigs                       text49       001B9
__end_of_ReadI2C                           text32       00B9E
__end_of_ReadMaxMin                        text48       00399
__end_of_SYSTEM_Initialize                 text55       00AE0
__end_of_TMR1_Initialize                   text56       00BFC
__end_of_WriteChecksum                     text42       00CE8
__end_of_WriteConfigs                      text41       00227
__end_of_WriteI2C                          text31       00F5C
__end_of_WriteMaxMin                       text39       0029A
__end_of___awdiv                           text20       000EE
__end_of___awmod                           text19       00FAD
__end_of___lwdiv                           text12       00D22
__end_of___lwmod                           text11       0003C
__end_of__initialization                   cinit        007FD
__end_of_configuration_mode_initialization text53       00A59
__end_of_fputc                             text9        00093
__end_of_get_clock                         text18       007EB
__end_of_get_config_clock_hours            text46       00A3F
__end_of_get_config_clock_minutes          text45       00A42
__end_of_get_luminosity                    text5        00B0A
__end_of_get_mode                          text52       00A54
__end_of_get_temperature                   text3        00B20
__end_of_global_initialization             text34       00E7B
__end_of_i2c1_eventTable                   stringtext2  01043
__end_of_main                              maintext     00C90
__end_of_memset                            text38       00B38
__end_of_mode_has_changed                  text33       00A45
__end_of_normal_mode_initialization        text1        00C68
__end_of_putch                             text10       00A37
__end_of_readLum                           text13       00C1F
__end_of_readTemperature                   text4        00A39
__end_of_set_clock                         text44       00AA2
__end_of_set_configs                       text40       00DEC
__end_of_set_default                       text37       00D63
__end_of_set_max_min                       text36       00E32
__end_of_set_mode                          text35       00A71
__end_of_sprintf                           text6        00BBC
__end_of_toggle                            text54       00EC6
__end_of_turn_on                           text2        00C42
__end_of_vfpfcnvrt                         text8        0051A
__end_of_vfprintf                          text7        00BDB
__hours                                    bssBANK1     000EE
__initialization                           cinit        007EB
__minutes                                  bssBANK1     000ED
__mode                                     bssBANK1     000EA
__mode_has_changed                         bssBANK1     000E9
__pbssBANK1                                bssBANK1     000D7
__pbssBANK2                                bssBANK2     00120
__pbssCOMMON                               bssCOMMON    0007C
__pcstackBANK0                             cstackBANK0  00020
__pcstackBANK1                             cstackBANK1  000A0
__pcstackCOMMON                            cstackCOMMON 00070
__pmaintext                                maintext     00C68
__pnvBANK2                                 nvBANK2      00168
__pstringtext1                             stringtext1  0101D
__pstringtext2                             stringtext2  01031
__pstringtext3                             stringtext3  01000
__pstringtext4                             stringtext4  01043
__pstringtext5                             stringtext5  01049
__pstringtext6                             stringtext6  0104E
__pstringtext7                             stringtext7  00000
__ptext1                                   text1        00C42
__ptext10                                  text10       00A36
__ptext11                                  text11       0000A
__ptext12                                  text12       00CE8
__ptext13                                  text13       00BFC
__ptext14                                  text14       00A78
__ptext15                                  text15       00A45
__ptext16                                  text16       00A64
__ptext17                                  text17       00A59
__ptext18                                  text18       0065E
__ptext19                                  text19       00F5C
__ptext2                                   text2        00C1F
__ptext20                                  text20       00093
__ptext21                                  text21       0029A
__ptext22                                  text22       00D63
__ptext23                                  text23       00B51
__ptext24                                  text24       00B38
__ptext25                                  text25       00A7F
__ptext26                                  text26       00AE0
__ptext27                                  text27       00A71
__ptext28                                  text28       00399
__ptext29                                  text29       00ABC
__ptext3                                   text3        00B0A
__ptext30                                  text30       0051A
__ptext31                                  text31       00F11
__ptext32                                  text32       00B84
__ptext33                                  text33       00A42
__ptext34                                  text34       00E32
__ptext35                                  text35       00A6A
__ptext36                                  text36       00DEC
__ptext37                                  text37       00D22
__ptext38                                  text38       00B20
__ptext39                                  text39       00227
__ptext4                                   text4        00A37
__ptext40                                  text40       00DA6
__ptext41                                  text41       001B9
__ptext42                                  text42       00CBC
__ptext43                                  text43       00B6A
__ptext44                                  text44       00A99
__ptext45                                  text45       00A3F
__ptext46                                  text46       00A3C
__ptext47                                  text47       00EC6
__ptext48                                  text48       00317
__ptext49                                  text49       00150
__ptext5                                   text5        00AF4
__ptext50                                  text50       00A90
__ptext51                                  text51       000EE
__ptext52                                  text52       00A50
__ptext53                                  text53       00A54
__ptext54                                  text54       00E7B
__ptext55                                  text55       00ACD
__ptext56                                  text56       00BDB
__ptext57                                  text57       00FAD
__ptext58                                  text58       00A4C
__ptext59                                  text59       00A39
__ptext6                                   text6        00B9E
__ptext60                                  text60       00AA2
__ptext61                                  text61       00A5E
__ptext62                                  text62       00AAD
__ptext63                                  text63       00A48
__ptext64                                  text64       00A87
__ptext65                                  text65       00C90
__ptext7                                   text7        00BBC
__ptext8                                   text8        0044A
__ptext9                                   text9        0003C
__s2_state                                 bssBANK1     000EB
__seconds                                  bssBANK1     000EC
__sensorsMaxMin                            bssBANK2     00154
_adc_busy_status                           bssBANK1     000E8
_configuration_mode_initialization         text53       00A54
_dbuf                                      bssBANK2     00120
_flags                                     bssBANK1     000E7
_fputc                                     text9        0003C
_get_clock                                 text18       0065E
_get_config_clock_hours                    text46       00A3C
_get_config_clock_minutes                  text45       00A3F
_get_luminosity                            text5        00AF4
_get_mode                                  text52       00A50
_get_temperature                           text3        00B0A
_global_initialization                     text34       00E32
_i2c1Status                                bssBANK1     000D7
_i2c1_eventTable                           stringtext2  01031
_main                                      maintext     00C68
_memset                                    text38       00B20
_mode_has_changed                          text33       00A42
_normal_mode_initialization                text1        00C42
_prec                                      bssBANK2     0014C
_putch                                     text10       00A36
_readLum                                   text13       00BFC
_readTemperature                           text4        00A37
_set_clock                                 text44       00A99
_set_configs                               text40       00DA6
_set_default                               text37       00D22
_set_max_min                               text36       00DEC
_set_mode                                  text35       00A6A
_sprintf                                   text6        00B9E
_timer1ReloadVal                           bssBANK1     000E5
_toggle                                    text54       00E7B
_turn_on                                   text2        00C1F
_unlockKeyHigh                             bssCOMMON    0007C
_unlockKeyLow                              bssCOMMON    0007D
_vfpfcnvrt                                 text8        0044A
_vfprintf                                  text7        00BBC
_width                                     bssBANK2     0014A
btemp                                      (abs)        0007E
clear_ram0                                 clrtext      00004
end_of_initialization                      cinit        007FD
fputc@c                                    cstackCOMMON 00070
fputc@fp                                   cstackCOMMON 00072
get_clock@clock                            cstackCOMMON 00078
get_clock@precision                        cstackCOMMON 0007B
get_luminosity@lumValue                    cstackBANK0  00048
get_luminosity@luminosity                  cstackBANK0  00045
get_temperature@temp                       cstackBANK0  00048
get_temperature@temperature                cstackBANK0  00045
intlevel0                                  functab      00000
intlevel1                                  functab      00000
intlevel2                                  functab      00000
intlevel3                                  functab      00000
intlevel4                                  functab      00000
intlevel5                                  functab      00000
main@mode                                  cstackBANK1  000D6
memset@c                                   cstackCOMMON 00072
memset@dest                                cstackCOMMON 00070
memset@n                                   cstackCOMMON 00074
memset@p                                   cstackCOMMON 00076
normal_mode_initialization@clock           cstackBANK0  00051
normal_mode_initialization@luminosity      cstackBANK0  00049
normal_mode_initialization@temperature     cstackBANK0  0004D
readLum@rawResult                          cstackCOMMON 00074
readLum@result3Bit                         cstackCOMMON 00076
reset_vec                                  reset_vec    00000
set_clock@hours                            cstackCOMMON 00072
set_clock@minutes                          cstackCOMMON 00070
set_clock@seconds                          cstackCOMMON 00071
set_configs@configs                        cstackBANK1  000BE
set_configs@write_eeprom                   cstackBANK1  000C8
set_max_min@sensorsMaxMin                  cstackBANK1  000BE
set_max_min@write_eeprom                   cstackBANK1  000D2
set_mode@mode                              cstackCOMMON 00070
sprintf@ap                                 cstackBANK0  00039
sprintf@f                                  cstackBANK0  0003A
sprintf@fmt                                cstackBANK0  00035
sprintf@s                                  cstackBANK0  00034
start                                      init         00002
start_initialization                       cinit        007EB
toggle@n                                   cstackCOMMON 00070
turn_on@n                                  cstackCOMMON 00070
vfpfcnvrt@ap                               cstackBANK0  00023
vfpfcnvrt@c                                cstackBANK0  0002E
vfpfcnvrt@convarg                          cstackBANK0  0002A
vfpfcnvrt@cp                               cstackBANK0  00028
vfpfcnvrt@fmt                              cstackBANK0  00022
vfpfcnvrt@fp                               cstackBANK0  00020
vfprintf@ap                                cstackBANK0  00033
vfprintf@cfmt                              cstackCOMMON 0007A
vfprintf@fmt                               cstackBANK0  00031
vfprintf@fp                                cstackBANK0  0002F
wtemp0                                     (abs)        0007E


MODULE INFORMATION

Module		Function		Class		Link	Load	Size
controller/EEPROM/EEPROM_controller.c
		_WriteChecksum 		CODE           	0CBC	0000	44
		_ReadMaxMin    		CODE           	0317	0000	130
		_MemIsUsable   		CODE           	0EC6	0000	75
		_ReadConfigs   		CODE           	0150	0000	105
		_CalculateChecksum		CODE           	00EE	0000	98
		_WriteMaxMin   		CODE           	0227	0000	115
		_WriteConfigs  		CODE           	01B9	0000	110

controller/EEPROM/EEPROM_controller.c estimated size: 677

controller/LCD/lcd.c
		_LCDinit       		CODE           	029A	0000	125
		_LCDsend       		CODE           	0D63	0000	67
		_LCDsend2x4    		CODE           	0399	0000	177
		_LCDWriteStr   		CODE           	0B51	0000	25
		_LCDstr        		CODE           	0B38	0000	25
		_LCDchar       		CODE           	0A7F	0000	8
		_LCDpos        		CODE           	0AE0	0000	20
		_LCDbusy       		CODE           	0ABC	0000	17
		_LCDrecv       		CODE           	051A	0000	324
		_LCDcmd        		CODE           	0A71	0000	7

controller/LCD/lcd.c estimated size: 795

controller/Luminosity/luminosity.c
		_readLum       		CODE           	0BFC	0000	35
		_get_luminosity		CODE           	0AF4	0000	22

controller/Luminosity/luminosity.c estimated size: 57

controller/Temperature/temperature.c
		_get_temperature		CODE           	0B0A	0000	22
		_readTemperature		CODE           	0A37	0000	2

controller/Temperature/temperature.c estimated size: 24

mcc_generated_files/timer/src/tmr1.c
		_TMR1_Initialize		CODE           	0BDB	0000	33

mcc_generated_files/timer/src/tmr1.c estimated size: 33

C:\Program Files\Microchip\xc8\v2.50\pic\sources\c99\common\lwmod.c
		___lwmod       		CODE           	000A	0000	50

C:\Program Files\Microchip\xc8\v2.50\pic\sources\c99\common\lwmod.c estimated size: 50

mcc_generated_files/system/src/interrupt.c
		_INT_SetInterruptHandler		CODE           	0A5E	0000	6
		_INTERRUPT_Initialize		CODE           	0AA2	0000	11

mcc_generated_files/system/src/interrupt.c estimated size: 17

C:\Program Files\Microchip\xc8\v2.50\pic\sources\c99\common\awmod.c
		___awmod       		CODE           	0F5C	0000	81

C:\Program Files\Microchip\xc8\v2.50\pic\sources\c99\common\awmod.c estimated size: 81

mcc_generated_files/i2c_host/src/mssp1.c
		_I2C1_InterruptsEnable		CODE           	0A48	0000	4
		_I2C1_Initialize		CODE           	0AAD	0000	15

mcc_generated_files/i2c_host/src/mssp1.c estimated size: 19

C:\Program Files\Microchip\xc8\v2.50\pic\sources\c99\common\putch.c
		_putch         		CODE           	0A36	0000	1

C:\Program Files\Microchip\xc8\v2.50\pic\sources\c99\common\putch.c estimated size: 1

mcc_generated_files/adc/src/adc.c
		_ADC_Initialize		CODE           	0C90	0000	44
		_ADC_IsConversionDone		CODE           	0A78	0000	7
		_ADC_ConversionStart		CODE           	0A45	0000	3
		_ADC_ChannelSelect		CODE           	0A59	0000	5
		_ADC_ConversionResultGet		CODE           	0A64	0000	6

mcc_generated_files/adc/src/adc.c estimated size: 65

controller/LCD/I2C/i2c.c
		_ReadI2C       		CODE           	0B84	0000	26
		_WriteI2C      		CODE           	0F11	0000	75

controller/LCD/I2C/i2c.c estimated size: 101

state/state.c
		_get_mode      		CODE           	0A50	0000	4
		_set_max_min   		CODE           	0DEC	0000	70
		_set_mode      		CODE           	0A6A	0000	7
		_get_config_clock_minutes		CODE           	0A3F	0000	3
		_mode_has_changed		CODE           	0A42	0000	3
		_set_configs   		CODE           	0DA6	0000	70
		_get_config_clock_hours		CODE           	0A3C	0000	3
		_set_default   		CODE           	0D22	0000	65

state/state.c estimated size: 225

mcc_generated_files/nvm/src/nvm.c
		_NVM_Initialize		CODE           	0A4C	0000	4
		_EEPROM_Read   		CODE           	0A90	0000	9
		_EEPROM_Write  		CODE           	0B6A	0000	26
		_NVM_StatusClear		CODE           	0A39	0000	3

mcc_generated_files/nvm/src/nvm.c estimated size: 42

mcc_generated_files/system/src/pins.c
		_PIN_MANAGER_Initialize		CODE           	0FAD	0000	83

mcc_generated_files/system/src/pins.c estimated size: 83

C:\Program Files\Microchip\xc8\v2.50\pic\sources\c99\common\nf_sprintf.c
		_sprintf       		CODE           	0B9E	0000	30

C:\Program Files\Microchip\xc8\v2.50\pic\sources\c99\common\nf_sprintf.c estimated size: 30

C:\Program Files\Microchip\xc8\v2.50\pic\sources\c99\common\memset.c
		_memset        		CODE           	0B20	0000	24

C:\Program Files\Microchip\xc8\v2.50\pic\sources\c99\common\memset.c estimated size: 24

C:\Program Files\Microchip\xc8\v2.50\pic\sources\c99\common\nf_fputc.c
		_fputc         		CODE           	003C	0000	87

C:\Program Files\Microchip\xc8\v2.50\pic\sources\c99\common\nf_fputc.c estimated size: 87

shared
		__initialization		CODE           	07EB	0000	18
		_I2C1_Host     		STRCODE        	0000	0000	0
		_i2c1_eventTable		STRCODE        	1031	0000	18

shared estimated size: 36

mode/configuration_mode.c
		_configuration_mode_initialization		CODE           	0A54	0000	5

mode/configuration_mode.c estimated size: 5

controller/LED/led.c
		_toggle        		CODE           	0E7B	0000	75
		_turn_on       		CODE           	0C1F	0000	35

controller/LED/led.c estimated size: 110

C:\Program Files\Microchip\xc8\v2.50\pic\sources\c99\common\lwdiv.c
		___lwdiv       		CODE           	0CE8	0000	58

C:\Program Files\Microchip\xc8\v2.50\pic\sources\c99\common\lwdiv.c estimated size: 58

C:\Program Files\Microchip\xc8\v2.50\pic\sources\c99\common\awdiv.c
		___awdiv       		CODE           	0093	0000	91

C:\Program Files\Microchip\xc8\v2.50\pic\sources\c99\common\awdiv.c estimated size: 91

C:\Program Files\Microchip\xc8\v2.50\pic\sources\c99\common\doprnt.c
		_vfpfcnvrt     		CODE           	044A	0000	208
		_vfprintf      		CODE           	0BBC	0000	31

C:\Program Files\Microchip\xc8\v2.50\pic\sources\c99\common\doprnt.c estimated size: 239

clock/clock.c
		_get_clock     		CODE           	065E	0000	397
		_set_clock     		CODE           	0A99	0000	9

clock/clock.c estimated size: 406

mcc_generated_files/system/src/clock.c
		_CLOCK_Initialize		CODE           	0A87	0000	9

mcc_generated_files/system/src/clock.c estimated size: 9

main.c
		_main          		CODE           	0C68	0000	40
		_global_initialization		CODE           	0E32	0000	73

main.c estimated size: 113

mcc_generated_files/system/src/system.c
		_SYSTEM_Initialize		CODE           	0ACD	0000	19

mcc_generated_files/system/src/system.c estimated size: 19

mode/normal_mode.c
		_normal_mode_initialization		CODE           	0C42	0000	38

mode/normal_mode.c estimated size: 38

